target datalayout = "e-m:e-p270:32:32-p271:32:32-p272:64:64-i64:64-i128:128-f80:128-n8:16:32:64-S128"
target triple = "x86_64-pc-linux-gnu"

%struct.OrArgIndexMatch = type { i32, i32, i32, i32, i32 }

; Function Attrs: nounwind uwtable
define internal i32 @or_arg_index_match_cmp(ptr noundef %0, ptr noundef %1) #0 {
  %3 = alloca i32, align 4
  %4 = alloca ptr, align 8
  %5 = alloca ptr, align 8
  %6 = alloca ptr, align 8
  %7 = alloca ptr, align 8
  %8 = alloca i32, align 4
  store ptr %0, ptr %4, align 8
  store ptr %1, ptr %5, align 8
  call void @llvm.lifetime.start.p0(i64 8, ptr %6) #7
  %9 = load ptr, ptr %4, align 8
  store ptr %9, ptr %6, align 8
  call void @llvm.lifetime.start.p0(i64 8, ptr %7) #7
  %10 = load ptr, ptr %5, align 8
  store ptr %10, ptr %7, align 8
  %11 = load ptr, ptr %6, align 8
  %12 = getelementptr inbounds nuw %struct.OrArgIndexMatch, ptr %11, i32 0, i32 0
  %13 = load i32, ptr %12, align 4
  %14 = load ptr, ptr %7, align 8
  %15 = getelementptr inbounds nuw %struct.OrArgIndexMatch, ptr %14, i32 0, i32 0
  %16 = load i32, ptr %15, align 4
  %17 = icmp slt i32 %13, %16
  br i1 %17, label %18, label %19

18:                                               ; preds = %2
  store i32 -1, ptr %3, align 4
  store i32 1, ptr %8, align 4
  br label %106

19:                                               ; preds = %2
  %20 = load ptr, ptr %6, align 8
  %21 = getelementptr inbounds nuw %struct.OrArgIndexMatch, ptr %20, i32 0, i32 0
  %22 = load i32, ptr %21, align 4
  %23 = load ptr, ptr %7, align 8
  %24 = getelementptr inbounds nuw %struct.OrArgIndexMatch, ptr %23, i32 0, i32 0
  %25 = load i32, ptr %24, align 4
  %26 = icmp sgt i32 %22, %25
  br i1 %26, label %27, label %28

27:                                               ; preds = %19
  store i32 1, ptr %3, align 4
  store i32 1, ptr %8, align 4
  br label %106

28:                                               ; preds = %19
  br label %29

29:                                               ; preds = %28
  %30 = load ptr, ptr %6, align 8
  %31 = getelementptr inbounds nuw %struct.OrArgIndexMatch, ptr %30, i32 0, i32 1
  %32 = load i32, ptr %31, align 4
  %33 = load ptr, ptr %7, align 8
  %34 = getelementptr inbounds nuw %struct.OrArgIndexMatch, ptr %33, i32 0, i32 1
  %35 = load i32, ptr %34, align 4
  %36 = icmp slt i32 %32, %35
  br i1 %36, label %37, label %38

37:                                               ; preds = %29
  store i32 -1, ptr %3, align 4
  store i32 1, ptr %8, align 4
  br label %106

38:                                               ; preds = %29
  %39 = load ptr, ptr %6, align 8
  %40 = getelementptr inbounds nuw %struct.OrArgIndexMatch, ptr %39, i32 0, i32 1
  %41 = load i32, ptr %40, align 4
  %42 = load ptr, ptr %7, align 8
  %43 = getelementptr inbounds nuw %struct.OrArgIndexMatch, ptr %42, i32 0, i32 1
  %44 = load i32, ptr %43, align 4
  %45 = icmp sgt i32 %41, %44
  br i1 %45, label %46, label %47

46:                                               ; preds = %38
  store i32 1, ptr %3, align 4
  store i32 1, ptr %8, align 4
  br label %106

47:                                               ; preds = %38
  br label %48

48:                                               ; preds = %47
  %49 = load ptr, ptr %6, align 8
  %50 = getelementptr inbounds nuw %struct.OrArgIndexMatch, ptr %49, i32 0, i32 2
  %51 = load i32, ptr %50, align 4
  %52 = load ptr, ptr %7, align 8
  %53 = getelementptr inbounds nuw %struct.OrArgIndexMatch, ptr %52, i32 0, i32 2
  %54 = load i32, ptr %53, align 4
  %55 = icmp ult i32 %51, %54
  br i1 %55, label %56, label %57

56:                                               ; preds = %48
  store i32 -1, ptr %3, align 4
  store i32 1, ptr %8, align 4
  br label %106

57:                                               ; preds = %48
  %58 = load ptr, ptr %6, align 8
  %59 = getelementptr inbounds nuw %struct.OrArgIndexMatch, ptr %58, i32 0, i32 2
  %60 = load i32, ptr %59, align 4
  %61 = load ptr, ptr %7, align 8
  %62 = getelementptr inbounds nuw %struct.OrArgIndexMatch, ptr %61, i32 0, i32 2
  %63 = load i32, ptr %62, align 4
  %64 = icmp ugt i32 %60, %63
  br i1 %64, label %65, label %66

65:                                               ; preds = %57
  store i32 1, ptr %3, align 4
  store i32 1, ptr %8, align 4
  br label %106

66:                                               ; preds = %57
  br label %67

67:                                               ; preds = %66
  %68 = load ptr, ptr %6, align 8
  %69 = getelementptr inbounds nuw %struct.OrArgIndexMatch, ptr %68, i32 0, i32 3
  %70 = load i32, ptr %69, align 4
  %71 = load ptr, ptr %7, align 8
  %72 = getelementptr inbounds nuw %struct.OrArgIndexMatch, ptr %71, i32 0, i32 3
  %73 = load i32, ptr %72, align 4
  %74 = icmp ult i32 %70, %73
  br i1 %74, label %75, label %76

75:                                               ; preds = %67
  store i32 -1, ptr %3, align 4
  store i32 1, ptr %8, align 4
  br label %106

76:                                               ; preds = %67
  %77 = load ptr, ptr %6, align 8
  %78 = getelementptr inbounds nuw %struct.OrArgIndexMatch, ptr %77, i32 0, i32 3
  %79 = load i32, ptr %78, align 4
  %80 = load ptr, ptr %7, align 8
  %81 = getelementptr inbounds nuw %struct.OrArgIndexMatch, ptr %80, i32 0, i32 3
  %82 = load i32, ptr %81, align 4
  %83 = icmp ugt i32 %79, %82
  br i1 %83, label %84, label %85

84:                                               ; preds = %76
  store i32 1, ptr %3, align 4
  store i32 1, ptr %8, align 4
  br label %106

85:                                               ; preds = %76
  br label %86

86:                                               ; preds = %85
  %87 = load ptr, ptr %6, align 8
  %88 = getelementptr inbounds nuw %struct.OrArgIndexMatch, ptr %87, i32 0, i32 4
  %89 = load i32, ptr %88, align 4
  %90 = load ptr, ptr %7, align 8
  %91 = getelementptr inbounds nuw %struct.OrArgIndexMatch, ptr %90, i32 0, i32 4
  %92 = load i32, ptr %91, align 4
  %93 = icmp slt i32 %89, %92
  br i1 %93, label %94, label %95

94:                                               ; preds = %86
  store i32 -1, ptr %3, align 4
  store i32 1, ptr %8, align 4
  br label %106

95:                                               ; preds = %86
  %96 = load ptr, ptr %6, align 8
  %97 = getelementptr inbounds nuw %struct.OrArgIndexMatch, ptr %96, i32 0, i32 4
  %98 = load i32, ptr %97, align 4
  %99 = load ptr, ptr %7, align 8
  %100 = getelementptr inbounds nuw %struct.OrArgIndexMatch, ptr %99, i32 0, i32 4
  %101 = load i32, ptr %100, align 4
  %102 = icmp sgt i32 %98, %101
  br i1 %102, label %103, label %104

103:                                              ; preds = %95
  store i32 1, ptr %3, align 4
  store i32 1, ptr %8, align 4
  br label %106

104:                                              ; preds = %95
  br label %105

105:                                              ; preds = %104
  store i32 0, ptr %3, align 4
  store i32 1, ptr %8, align 4
  br label %106

106:                                              ; preds = %105, %103, %94, %84, %75, %65, %56, %46, %37, %27, %18
  call void @llvm.lifetime.end.p0(i64 8, ptr %7) #7
  call void @llvm.lifetime.end.p0(i64 8, ptr %6) #7
  %107 = load i32, ptr %3, align 4
  ret i32 %107
}