; Function Attrs: mustprogress nofree norecurse nosync nounwind willreturn memory(argmem: read) uwtable
define internal range(i32 -1, 2) i32 @or_arg_index_match_cmp(ptr noundef readonly captures(none) %0, ptr noundef readonly captures(none) %1) #6 {
  %3 = load i32, ptr %0, align 4
  %4 = load i32, ptr %1, align 4
  %5 = icmp slt i32 %3, %4
  br i1 %5, label %40, label %6

6:                                                ; preds = %2
  %7 = icmp sgt i32 %3, %4
  br i1 %7, label %40, label %8

8:                                                ; preds = %6
  %9 = getelementptr inbounds nuw i8, ptr %0, i64 4
  %10 = load i32, ptr %9, align 4
  %11 = getelementptr inbounds nuw i8, ptr %1, i64 4
  %12 = load i32, ptr %11, align 4
  %13 = icmp slt i32 %10, %12
  br i1 %13, label %40, label %14

14:                                               ; preds = %8
  %15 = icmp sgt i32 %10, %12
  br i1 %15, label %40, label %16

16:                                               ; preds = %14
  %17 = getelementptr inbounds nuw i8, ptr %0, i64 8
  %18 = load i32, ptr %17, align 4
  %19 = getelementptr inbounds nuw i8, ptr %1, i64 8
  %20 = load i32, ptr %19, align 4
  %21 = icmp ult i32 %18, %20
  br i1 %21, label %40, label %22

22:                                               ; preds = %16
  %23 = icmp ugt i32 %18, %20
  br i1 %23, label %40, label %24

24:                                               ; preds = %22
  %25 = getelementptr inbounds nuw i8, ptr %0, i64 12
  %26 = load i32, ptr %25, align 4
  %27 = getelementptr inbounds nuw i8, ptr %1, i64 12
  %28 = load i32, ptr %27, align 4
  %29 = icmp ult i32 %26, %28
  br i1 %29, label %40, label %30

30:                                               ; preds = %24
  %31 = icmp ugt i32 %26, %28
  br i1 %31, label %40, label %32

32:                                               ; preds = %30
  %33 = getelementptr inbounds nuw i8, ptr %0, i64 16
  %34 = load i32, ptr %33, align 4
  %35 = getelementptr inbounds nuw i8, ptr %1, i64 16
  %36 = load i32, ptr %35, align 4
  %37 = icmp slt i32 %34, %36
  br i1 %37, label %40, label %38

38:                                               ; preds = %32
  %39 = icmp sgt i32 %34, %36
  %. = zext i1 %39 to i32
  br label %40

40:                                               ; preds = %38, %32, %30, %24, %22, %16, %14, %8, %6, %2
  %.0 = phi i32 [ -1, %2 ], [ 1, %6 ], [ -1, %8 ], [ 1, %14 ], [ -1, %16 ], [ 1, %22 ], [ -1, %24 ], [ 1, %30 ], [ -1, %32 ], [ %., %38 ]
  ret i32 %.0
}